target datalayout = "e-m:e-p270:32:32-p271:32:32-p272:64:64-i64:64-i128:128-f80:128-n8:16:32:64-S128"
target triple = "x86_64-pc-linux-gnu"

@hf_mikey = internal global [71 x i32] zeroinitializer, align 16
@hf_mikey_sp_param = internal global [14 x i32] zeroinitializer, align 16
@ett_mikey_sp_param = internal global i32 0, align 4
@sp_prot_type_vals = internal constant [2 x { i32, [4 x i8], ptr }] [{ i32, [4 x i8], ptr } { i32 0, [4 x i8] zeroinitializer, ptr @.str.256 }, { i32, [4 x i8], ptr } zeroinitializer], align 16
@.str.301 = private unnamed_addr constant [8 x i8] c"Unknown\00", align 1
@.str.309 = private unnamed_addr constant [18 x i8] c" No: %d, Type: %s\00", align 1

; Function Attrs: null_pointer_is_valid sspstrong uwtable
define internal i32 @dissect_payload_sp_param(i32 noundef %0, ptr noundef %1, ptr noundef %2) #0 {
  %4 = alloca i32, align 4
  %5 = alloca ptr, align 8
  %6 = alloca ptr, align 8
  %7 = alloca i32, align 4
  %8 = alloca i8, align 1
  %9 = alloca i8, align 1
  %10 = alloca i32, align 4
  %11 = alloca ptr, align 8
  %12 = alloca ptr, align 8
  store i32 %0, ptr %4, align 4
  store ptr %1, ptr %5, align 8
  store ptr %2, ptr %6, align 8
  call void @llvm.lifetime.start.p0(i64 4, ptr %7) #5
  store i32 0, ptr %7, align 4
  call void @llvm.lifetime.start.p0(i64 1, ptr %8) #5
  call void @llvm.lifetime.start.p0(i64 1, ptr %9) #5
  call void @llvm.lifetime.start.p0(i64 4, ptr %10) #5
  %13 = load ptr, ptr %5, align 8
  %14 = load i32, ptr %7, align 4
  %15 = add i32 %14, 0
  %16 = call zeroext i8 @tvb_get_uint8(ptr noundef %13, i32 noundef %15)
  store i8 %16, ptr %8, align 1
  %17 = load ptr, ptr %5, align 8
  %18 = load i32, ptr %7, align 4
  %19 = add i32 %18, 1
  %20 = call zeroext i8 @tvb_get_uint8(ptr noundef %17, i32 noundef %19)
  store i8 %20, ptr %9, align 1
  %21 = load i32, ptr getelementptr ([71 x i32], ptr @hf_mikey, i64 0, i64 40), align 16
  store i32 %21, ptr %10, align 4
  %22 = load i32, ptr %4, align 4
  switch i32 %22, label %33 [
    i32 0, label %23
  ]

23:                                               ; preds = %3
  %24 = load i8, ptr %8, align 1
  %25 = zext i8 %24 to i64
  %26 = icmp ult i64 %25, 14
  br i1 %26, label %27, label %32

27:                                               ; preds = %23
  %28 = load i8, ptr %8, align 1
  %29 = zext i8 %28 to i64
  %30 = getelementptr [14 x i32], ptr @hf_mikey_sp_param, i64 0, i64 %29
  %31 = load i32, ptr %30, align 4
  store i32 %31, ptr %10, align 4
  br label %32

32:                                               ; preds = %27, %23
  br label %33

33:                                               ; preds = %3, %32
  %34 = load ptr, ptr %6, align 8
  %35 = icmp ne ptr %34, null
  br i1 %35, label %36, label %60

36:                                               ; preds = %33
  call void @llvm.lifetime.start.p0(i64 8, ptr %11) #5
  call void @llvm.lifetime.start.p0(i64 8, ptr %12) #5
  %37 = load ptr, ptr %6, align 8
  %38 = load i32, ptr %10, align 4
  %39 = load ptr, ptr %5, align 8
  %40 = load i8, ptr %9, align 1
  %41 = zext i8 %40 to i32
  %42 = call ptr @proto_tree_add_item(ptr noundef %37, i32 noundef %38, ptr noundef %39, i32 noundef 2, i32 noundef %41, i32 noundef 0)
  store ptr %42, ptr %11, align 8
  %43 = load ptr, ptr %11, align 8
  %44 = load i32, ptr @ett_mikey_sp_param, align 4
  %45 = call ptr @proto_item_add_subtree(ptr noundef %43, i32 noundef %44)
  store ptr %45, ptr %12, align 8
  %46 = load ptr, ptr %12, align 8
  %47 = load i32, ptr getelementptr ([71 x i32], ptr @hf_mikey, i64 0, i64 41), align 4
  %48 = load ptr, ptr %5, align 8
  %49 = call ptr @proto_tree_add_item(ptr noundef %46, i32 noundef %47, ptr noundef %48, i32 noundef 0, i32 noundef 1, i32 noundef 0)
  %50 = load ptr, ptr %12, align 8
  %51 = load i32, ptr getelementptr ([71 x i32], ptr @hf_mikey, i64 0, i64 42), align 8
  %52 = load ptr, ptr %5, align 8
  %53 = call ptr @proto_tree_add_item(ptr noundef %50, i32 noundef %51, ptr noundef %52, i32 noundef 1, i32 noundef 1, i32 noundef 0)
  %54 = load ptr, ptr %12, align 8
  %55 = load i32, ptr getelementptr ([71 x i32], ptr @hf_mikey, i64 0, i64 43), align 4
  %56 = load ptr, ptr %5, align 8
  %57 = load i8, ptr %9, align 1
  %58 = zext i8 %57 to i32
  %59 = call ptr @proto_tree_add_item(ptr noundef %54, i32 noundef %55, ptr noundef %56, i32 noundef 2, i32 noundef %58, i32 noundef 0)
  call void @llvm.lifetime.end.p0(i64 8, ptr %12) #5
  call void @llvm.lifetime.end.p0(i64 8, ptr %11) #5
  br label %60

60:                                               ; preds = %36, %33
  %61 = load i8, ptr %9, align 1
  %62 = zext i8 %61 to i32
  %63 = add i32 2, %62
  call void @llvm.lifetime.end.p0(i64 4, ptr %10) #5
  call void @llvm.lifetime.end.p0(i64 1, ptr %9) #5
  call void @llvm.lifetime.end.p0(i64 1, ptr %8) #5
  call void @llvm.lifetime.end.p0(i64 4, ptr %7) #5
  ret i32 %63
}

; Function Attrs: null_pointer_is_valid sspstrong uwtable
define internal i32 @dissect_payload_sp(ptr noundef %0, ptr noundef %1, ptr noundef %2, ptr noundef %3) #0 {
  %5 = alloca i32, align 4
  %6 = alloca ptr, align 8
  %7 = alloca ptr, align 8
  %8 = alloca ptr, align 8
  %9 = alloca ptr, align 8
  %10 = alloca i32, align 4
  %11 = alloca i16, align 2
  %12 = alloca i32, align 4
  %13 = alloca i8, align 1
  %14 = alloca i32, align 4
  %15 = alloca ptr, align 8
  %16 = alloca i32, align 4
  %17 = alloca ptr, align 8
  %18 = alloca i32, align 4
  store ptr %0, ptr %6, align 8
  store ptr %1, ptr %7, align 8
  store ptr %2, ptr %8, align 8
  store ptr %3, ptr %9, align 8
  call void @llvm.lifetime.start.p0(i64 4, ptr %10) #5
  store i32 0, ptr %10, align 4
  call void @llvm.lifetime.start.p0(i64 2, ptr %11) #5
  call void @llvm.lifetime.start.p0(i64 4, ptr %12) #5
  call void @llvm.lifetime.start.p0(i64 1, ptr %13) #5
  call void @llvm.lifetime.start.p0(i64 4, ptr %14) #5
  %19 = load ptr, ptr %7, align 8
  %20 = load i32, ptr %10, align 4
  %21 = add i32 %20, 3
  %22 = call zeroext i16 @tvb_get_ntohs(ptr noundef %19, i32 noundef %21)
  store i16 %22, ptr %11, align 2
  %23 = load ptr, ptr %7, align 8
  %24 = load i32, ptr %10, align 4
  %25 = add i32 %24, 1
  %26 = call zeroext i8 @tvb_get_uint8(ptr noundef %23, i32 noundef %25)
  store i8 %26, ptr %13, align 1
  %27 = load ptr, ptr %7, align 8
  %28 = load i32, ptr %10, align 4
  %29 = add i32 %28, 2
  %30 = call zeroext i8 @tvb_get_uint8(ptr noundef %27, i32 noundef %29)
  %31 = zext i8 %30 to i32
  store i32 %31, ptr %14, align 4
  %32 = load ptr, ptr %9, align 8
  %33 = icmp ne ptr %32, null
  br i1 %33, label %34, label %54

34:                                               ; preds = %4
  call void @llvm.lifetime.start.p0(i64 8, ptr %15) #5
  %35 = load ptr, ptr %9, align 8
  %36 = call ptr @proto_tree_get_parent(ptr noundef %35)
  store ptr %36, ptr %15, align 8
  %37 = load ptr, ptr %9, align 8
  %38 = load i32, ptr getelementptr ([71 x i32], ptr @hf_mikey, i64 0, i64 37), align 4
  %39 = load ptr, ptr %7, align 8
  %40 = call ptr @proto_tree_add_item(ptr noundef %37, i32 noundef %38, ptr noundef %39, i32 noundef 1, i32 noundef 1, i32 noundef 0)
  %41 = load ptr, ptr %9, align 8
  %42 = load i32, ptr getelementptr ([71 x i32], ptr @hf_mikey, i64 0, i64 38), align 8
  %43 = load ptr, ptr %7, align 8
  %44 = call ptr @proto_tree_add_item(ptr noundef %41, i32 noundef %42, ptr noundef %43, i32 noundef 2, i32 noundef 1, i32 noundef 0)
  %45 = load ptr, ptr %9, align 8
  %46 = load i32, ptr getelementptr ([71 x i32], ptr @hf_mikey, i64 0, i64 39), align 4
  %47 = load ptr, ptr %7, align 8
  %48 = call ptr @proto_tree_add_item(ptr noundef %45, i32 noundef %46, ptr noundef %47, i32 noundef 3, i32 noundef 2, i32 noundef 0)
  %49 = load ptr, ptr %15, align 8
  %50 = load i8, ptr %13, align 1
  %51 = zext i8 %50 to i32
  %52 = load i32, ptr %14, align 4
  %53 = call ptr @val_to_str_const(i32 noundef %52, ptr noundef @sp_prot_type_vals, ptr noundef @.str.301)
  call void (ptr, ptr, ...) @proto_item_append_text(ptr noundef %49, ptr noundef @.str.309, i32 noundef %51, ptr noundef %53)
  call void @llvm.lifetime.end.p0(i64 8, ptr %15) #5
  br label %54

54:                                               ; preds = %34, %4
  %55 = load ptr, ptr %7, align 8
  %56 = load i32, ptr %10, align 4
  %57 = add i32 %56, 5
  %58 = load i16, ptr %11, align 2
  %59 = zext i16 %58 to i32
  call void @tvb_ensure_bytes_exist(ptr noundef %55, i32 noundef %57, i32 noundef %59)
  %60 = load i32, ptr %10, align 4
  %61 = add i32 %60, 5
  store i32 %61, ptr %10, align 4
  store i32 0, ptr %12, align 4
  br label %62

62:                                               ; preds = %90, %54
  %63 = load i32, ptr %12, align 4
  %64 = load i16, ptr %11, align 2
  %65 = zext i16 %64 to i32
  %66 = icmp slt i32 %63, %65
  br i1 %66, label %67, label %91

67:                                               ; preds = %62
  call void @llvm.lifetime.start.p0(i64 4, ptr %16) #5
  call void @llvm.lifetime.start.p0(i64 8, ptr %17) #5
  %68 = load ptr, ptr %7, align 8
  %69 = load i32, ptr %10, align 4
  %70 = load i32, ptr %12, align 4
  %71 = add i32 %69, %70
  %72 = load i16, ptr %11, align 2
  %73 = zext i16 %72 to i32
  %74 = load i32, ptr %12, align 4
  %75 = sub i32 %73, %74
  %76 = call ptr @tvb_new_subset_length(ptr noundef %68, i32 noundef %71, i32 noundef %75)
  store ptr %76, ptr %17, align 8
  %77 = load i32, ptr %14, align 4
  %78 = load ptr, ptr %17, align 8
  %79 = load ptr, ptr %9, align 8
  %80 = call i32 @dissect_payload_sp_param(i32 noundef %77, ptr noundef %78, ptr noundef %79)
  store i32 %80, ptr %16, align 4
  %81 = load i32, ptr %16, align 4
  %82 = icmp slt i32 %81, 0
  br i1 %82, label %83, label %84

83:                                               ; preds = %67
  store i32 0, ptr %5, align 4
  store i32 1, ptr %18, align 4
  br label %88

84:                                               ; preds = %67
  %85 = load i32, ptr %16, align 4
  %86 = load i32, ptr %12, align 4
  %87 = add i32 %86, %85
  store i32 %87, ptr %12, align 4
  store i32 0, ptr %18, align 4
  br label %88

88:                                               ; preds = %84, %83
  call void @llvm.lifetime.end.p0(i64 8, ptr %17) #5
  call void @llvm.lifetime.end.p0(i64 4, ptr %16) #5
  %89 = load i32, ptr %18, align 4
  switch i32 %89, label %95 [
    i32 0, label %90
  ]

90:                                               ; preds = %88
  br label %62, !llvm.loop !10

91:                                               ; preds = %62
  %92 = load i16, ptr %11, align 2
  %93 = zext i16 %92 to i32
  %94 = add i32 5, %93
  store i32 %94, ptr %5, align 4
  store i32 1, ptr %18, align 4
  br label %95

95:                                               ; preds = %91, %88
  call void @llvm.lifetime.end.p0(i64 4, ptr %14) #5
  call void @llvm.lifetime.end.p0(i64 1, ptr %13) #5
  call void @llvm.lifetime.end.p0(i64 4, ptr %12) #5
  call void @llvm.lifetime.end.p0(i64 2, ptr %11) #5
  call void @llvm.lifetime.end.p0(i64 4, ptr %10) #5
  %96 = load i32, ptr %5, align 4
  ret i32 %96
}