; Function Attrs: null_pointer_is_valid sspstrong uwtable
define internal range(i32 5, 65541) i32 @dissect_payload_sp(ptr readnone captures(none) %0, ptr noundef %1, ptr readnone captures(none) %2, ptr noundef %3) #0 {
  %5 = tail call zeroext i16 @tvb_get_ntohs(ptr noundef %1, i32 noundef 3)
  %6 = tail call zeroext i8 @tvb_get_uint8(ptr noundef %1, i32 noundef 1)
  %7 = tail call zeroext i8 @tvb_get_uint8(ptr noundef %1, i32 noundef 2)
  %.not = icmp eq ptr %3, null
  br i1 %.not, label %19, label %8

8:                                                ; preds = %4
  %9 = zext i8 %7 to i32
  %10 = tail call ptr @proto_tree_get_parent(ptr noundef nonnull %3)
  %11 = load i32, ptr getelementptr inbounds nuw (i8, ptr @hf_mikey, i64 148), align 4
  %12 = tail call ptr @proto_tree_add_item(ptr noundef nonnull %3, i32 noundef %11, ptr noundef %1, i32 noundef 1, i32 noundef 1, i32 noundef 0)
  %13 = load i32, ptr getelementptr inbounds nuw (i8, ptr @hf_mikey, i64 152), align 8
  %14 = tail call ptr @proto_tree_add_item(ptr noundef nonnull %3, i32 noundef %13, ptr noundef %1, i32 noundef 2, i32 noundef 1, i32 noundef 0)
  %15 = load i32, ptr getelementptr inbounds nuw (i8, ptr @hf_mikey, i64 156), align 4
  %16 = tail call ptr @proto_tree_add_item(ptr noundef nonnull %3, i32 noundef %15, ptr noundef %1, i32 noundef 3, i32 noundef 2, i32 noundef 0)
  %17 = zext i8 %6 to i32
  %18 = tail call ptr @val_to_str_const(i32 noundef %9, ptr noundef nonnull @sp_prot_type_vals, ptr noundef nonnull @.str.301)
  tail call void (ptr, ptr, ...) @proto_item_append_text(ptr noundef %10, ptr noundef nonnull @.str.309, i32 noundef %17, ptr noundef %18)
  br label %19

19:                                               ; preds = %8, %4
  %20 = zext i16 %5 to i32
  tail call void @tvb_ensure_bytes_exist(ptr noundef %1, i32 noundef 5, i32 noundef %20)
  %.not44 = icmp eq i16 %5, 0
  br i1 %.not44, label %._crit_edge, label %.lr.ph

.lr.ph:                                           ; preds = %19
  %cond.i = icmp eq i8 %7, 0
  br i1 %.not, label %._crit_edge.i.us, label %dissect_payload_sp_param.exit

._crit_edge.i.us:                                 ; preds = %.lr.ph, %._crit_edge.i.us
  %.03743.us = phi i32 [ %27, %._crit_edge.i.us ], [ 0, %.lr.ph ]
  %21 = add i32 %.03743.us, 5
  %22 = sub i32 %20, %.03743.us
  %23 = tail call ptr @tvb_new_subset_length(ptr noundef %1, i32 noundef %21, i32 noundef %22)
  %24 = tail call zeroext i8 @tvb_get_uint8(ptr noundef %23, i32 noundef 0)
  %25 = tail call zeroext i8 @tvb_get_uint8(ptr noundef %23, i32 noundef 1)
  %.pre.i.us = zext i8 %25 to i32
  %26 = add i32 %.03743.us, 2
  %27 = add i32 %26, %.pre.i.us
  %28 = icmp slt i32 %27, %20
  br i1 %28, label %._crit_edge.i.us, label %._crit_edge

dissect_payload_sp_param.exit:                    ; preds = %.lr.ph, %dissect_payload_sp_param.exit
  %.03743 = phi i32 [ %48, %dissect_payload_sp_param.exit ], [ 0, %.lr.ph ]
  %29 = add i32 %.03743, 5
  %30 = sub i32 %20, %.03743
  %31 = tail call ptr @tvb_new_subset_length(ptr noundef %1, i32 noundef %29, i32 noundef %30)
  %32 = tail call zeroext i8 @tvb_get_uint8(ptr noundef %31, i32 noundef 0)
  %33 = tail call zeroext i8 @tvb_get_uint8(ptr noundef %31, i32 noundef 1)
  %34 = icmp ult i8 %32, 14
  %or.cond.i = select i1 %cond.i, i1 %34, i1 false
  %35 = zext i8 %32 to i64
  %36 = getelementptr [14 x i32], ptr @hf_mikey_sp_param, i64 0, i64 %35
  %.0.in.i = select i1 %or.cond.i, ptr %36, ptr getelementptr inbounds nuw (i8, ptr @hf_mikey, i64 160)
  %.0.i = load i32, ptr %.0.in.i, align 4
  %37 = zext i8 %33 to i32
  %38 = tail call ptr @proto_tree_add_item(ptr noundef nonnull %3, i32 noundef %.0.i, ptr noundef %31, i32 noundef 2, i32 noundef %37, i32 noundef 0)
  %39 = load i32, ptr @ett_mikey_sp_param, align 4
  %40 = tail call ptr @proto_item_add_subtree(ptr noundef %38, i32 noundef %39)
  %41 = load i32, ptr getelementptr inbounds nuw (i8, ptr @hf_mikey, i64 164), align 4
  %42 = tail call ptr @proto_tree_add_item(ptr noundef %40, i32 noundef %41, ptr noundef %31, i32 noundef 0, i32 noundef 1, i32 noundef 0)
  %43 = load i32, ptr getelementptr inbounds nuw (i8, ptr @hf_mikey, i64 168), align 8
  %44 = tail call ptr @proto_tree_add_item(ptr noundef %40, i32 noundef %43, ptr noundef %31, i32 noundef 1, i32 noundef 1, i32 noundef 0)
  %45 = load i32, ptr getelementptr inbounds nuw (i8, ptr @hf_mikey, i64 172), align 4
  %46 = tail call ptr @proto_tree_add_item(ptr noundef %40, i32 noundef %45, ptr noundef %31, i32 noundef 2, i32 noundef %37, i32 noundef 0)
  %47 = add i32 %.03743, 2
  %48 = add i32 %47, %37
  %49 = icmp slt i32 %48, %20
  br i1 %49, label %dissect_payload_sp_param.exit, label %._crit_edge

._crit_edge:                                      ; preds = %dissect_payload_sp_param.exit, %._crit_edge.i.us, %19
  %50 = add nuw nsw i32 %20, 5
  ret i32 %50
}